Certificate:
    Data:
        Version: 3 (0x2)
        Serial Number: 4096 (0x1000)
    Signature Algorithm: sha256WithRSAEncryption
        Issuer: CN=shortlived.cvi.internal, O=CyberVisionaries Institute, C=US
        Validity
            Not Before: Jan  1 00:00:00 2020 GMT
            Not After : Jan  1 01:00:00 2020 GMT
        Subject: CN=shortlived.cvi.internal, O=CyberVisionaries Institute, C=US
        Subject Public Key Info:
            Public Key Algorithm: rsaEncryption
                RSA Public-Key: (2048 bit)
                Modulus:
                    00:c6:c9:93:24:04:0a:d5:b9:6e:77:60:7d:91:24:
                    60:8c:42:f8:f9:7a:5f:02:ce:50:34:7a:f4:04:bb:
                    54:62:ae:c5:94:f0:7a:6a:ae:a5:5f:bc:c9:23:f4:
                    f4:93:cd:be:2b:f6:82:95:ee:c7:c0:0f:b0:4e:4a:
                    0b:30:7b:f7:49:6a:ac:3d:46:97:b4:59:a2:15:91:
                    ec:3c:fc:5d:8d:73:0c:85:35:bc:95:b2:c8:14:b2:
                    1f:fc:ac:ff:00:f1:ff:f3:c2:d6:03:f4:fa:6b:fb:
                    db:36:a2:69:23:b7:3a:86:1c:18:a4:5a:13:9f:1d:
                    3f:18:3b:7a:76:8b:1b:3f:e2:8b:91:5d:ca:d0:17:
                    f9:3c:86:8d:53:9b:dd:50:3b:b2:90:de:d9:f2:f2:
                    e0:5e:c8:a9:1b:78:d2:d9:62:f2:2e:32:fe:c9:a4:
                    61:f5:ab:3e:31:68:e0:38:df:54:b7:9d:6f:3b:3c:
                    02:4a:3b:d4:d9:0e:bf:60:42:d9:87:9a:85:60:b0:
                    ed:5d:7a:2b:d0:a8:ad:fd:69:83:a4:87:b5:73:3e:
                    9c:cf:b0:eb:b3:fd:06:8a:9f:af:b9:57:61:cf:87:
                    a9:64:d4:5f:bd:20:b8:aa:c0:fd:d1:ab:cf:18:51:
                    a9:31:f8:5a:72:9b:bb:ff:5a:32:e3:a9:c0:51:55:
                    5a:bf
                Exponent: 65537 (0x10001)
        X509v3 extensions:
            X509v3 Basic Constraints: 
                CA:FALSE
            X509v3 Key Usage: 
                Digital Signature, Key Encipherment
            X509v3 Subject Key Identifier: 
                3E:2B:BC:4B:D0:CA:15:B6:87:5E:24:57:7A:B6:05:B0:6E:52:7D:DA
            X509v3 Authority Key Identifier: 
                keyid:3E:2B:BC:4B:D0:CA:15:B6:87:5E:24:57:7A:B6:05:B0:6E:52:7D:DA

    Signature Algorithm: sha256WithRSAEncryption
         02:bd:3d:bd:d9:ef:c3:20:d7:7f:b5:fe:a5:51:c8:69:b9:09:
         3a:02:24:05:72:fe:a0:8c:c3:a1:d4:b2:15:94:16:db:f3:c0:
         e6:e8:a6:88:d3:a3:0c:66:cf:bb:04:53:58:7d:d2:d4:3a:8a:
         25:11:56:c7:a9:02:c1:af:ea:f1:f9:67:86:0d:ba:15:83:97:
         ff:34:38:e5:6b:be:b6:b4:34:e6:23:31:e5:a3:83:21:1b:69:
         df:dd:dc:ad:29:45:46:ce:5a:6b:f1:a5:ad:ad:1f:0d:06:09:
         22:24:9f:91:7d:b8:dc:18:0d:4c:54:91:ef:08:43:99:7a:2d:
         36:5a:05:cf:74:8a:33:51:d3:a6:47:36:57:4c:07:78:5f:0c:
         78:2d:52:ff:54:f5:1e:a4:32:f7:1a:0b:f9:c4:09:a1:78:9b:
         a3:f0:cd:c9:23:a5:85:21:53:14:bb:d3:ef:75:c6:34:19:e1:
         e6:bf:53:d6:1d:2e:0f:ef:69:34:b2:43:3b:5c:2f:52:b8:e0:
         f4:3a:97:b1:7e:4c:38:5d:d9:5b:d4:97:f4:9a:af:b9:09:24:
         ab:6a:8d:01:f6:a2:cc:c3:d9:fe:e3:c3:a7:ea:cb:40:e5:a2:
         d6:e8:e1:de:45:6e:94:74:3a:8d:b3:b8:3f:96:57:b1:6a:65:
         3b:3f:c1:b5
-----BEGIN CERTIFICATE-----
MIIDfjCCAmagAwIBAgICEAAwDQYJKoZIhvcNAQELBQAwVDEgMB4GA1UEAwwXc2hv
cnRsaXZlZC5jdmkuaW50ZXJuYWwxIzAhBgNVBAoMGkN5YmVyVmlzaW9uYXJpZXMg
SW5zdGl0dXRlMQswCQYDVQQGEwJVUzAeFw0yMDAxMDEwMDAwMDBaFw0yMDAxMDEw
MTAwMDBaMFQxIDAeBgNVBAMMF3Nob3J0bGl2ZWQuY3ZpLmludGVybmFsMSMwIQYD
VQQKDBpDeWJlclZpc2lvbmFyaWVzIEluc3RpdHV0ZTELMAkGA1UEBhMCVVMwggEi
MA0GCSqGSIb3DQEBAQUAA4IBDwAwggEKAoIBAQDGyZMkBArVuW53YH2RJGCMQvj5
el8CzlA0evQEu1RirsWU8HpqrqVfvMkj9PSTzb4r9oKV7sfAD7BOSgswe/dJaqw9
Rpe0WaIVkew8/F2NcwyFNbyVssgUsh/8rP8A8f/zwtYD9Ppr+9s2omkjtzqGHBik
WhOfHT8YO3p2ixs/4ouRXcrQF/k8ho1Tm91QO7KQ3tny8uBeyKkbeNLZYvIuMv7J
pGH1qz4xaOA431S3nW87PAJKO9TZDr9gQtmHmoVgsO1deivQqK39aYOkh7VzPpzP
sOuz/QaKn6+5V2HPh6lk1F+9ILiqwP3Rq88YUakx+Fpym7v/WjLjqcBRVVq/AgMB
AAGjWjBYMAkGA1UdEwQCMAAwCwYDVR0PBAQDAgWgMB0GA1UdDgQWBBQ+K7xL0MoV
todeJFd6tgWwblJ92jAfBgNVHSMEGDAWgBQ+K7xL0MoVtodeJFd6tgWwblJ92jAN
BgkqhkiG9w0BAQsFAAOCAQEAAr09vdnvwyDXf7X+pVHIabkJOgIkBXL+oIzDodSy
FZQW2/PA5uimiNOjDGbPuwRTWH3S1DqKJRFWx6kCwa/q8flnhg26FYOX/zQ45Wu+
trQ05iMx5aODIRtp393crSlFRs5aa/Glra0fDQYJIiSfkX243BgNTFSR7whDmXot
NloFz3SKM1HTpkc2V0wHeF8MeC1S/1T1HqQy9xoL+cQJoXibo/DNySOlhSFTFLvT
73XGNBnh5r9T1h0uD+9pNLJDO1wvUrjg9DqXsX5MOF3ZW9SX9JqvuQkkq2qNAfai
zMPZ/uPDp+rLQOWi1ujh3kVulHQ6jbO4P5ZXsWplOz/BtQ==
-----END CERTIFICATE-----
